   1               		.file	"Dual_7Segment.c"
   2               		.arch atmega32
   3               	__SREG__ = 0x3f
   4               	__SP_H__ = 0x3e
   5               	__SP_L__ = 0x3d
   6               	__tmp_reg__ = 0
   7               	__zero_reg__ = 1
   8               		.global __do_copy_data
   9               		.global __do_clear_bss
  11               		.text
  12               	.Ltext0:
  80               	.global	d7segment_display
  82               	d7segment_display:
   1:../../Eblock_lib/Dual_7Segment.c **** /*
   2:../../Eblock_lib/Dual_7Segment.c **** 
   3:../../Eblock_lib/Dual_7Segment.c ****  Module 				:   Dual_7Segment common  cathode
   4:../../Eblock_lib/Dual_7Segment.c ****  Description 			:   Dual_7Segments common cathode
   5:../../Eblock_lib/Dual_7Segment.c ****  Original written for 	:   ATMEGA32
   6:../../Eblock_lib/Dual_7Segment.c ****  CPU port/tested		:   ATMEGA32
   7:../../Eblock_lib/Dual_7Segment.c ****  Hardware use			:   Dual 7 Segments common cathode
   8:../../Eblock_lib/Dual_7Segment.c **** 						:   2 Button Switch ( Press on release off)
   9:../../Eblock_lib/Dual_7Segment.c ****  Port use				:   E_PORTA (0-7), E_PORTB (1-2)  7 Segments
  10:../../Eblock_lib/Dual_7Segment.c **** 						:   E_INT1 (SW1)  E_PB0 (SW2)
  11:../../Eblock_lib/Dual_7Segment.c **** 						
  12:../../Eblock_lib/Dual_7Segment.c ****  Memory	FLASH			:   XXX
  13:../../Eblock_lib/Dual_7Segment.c **** 		RAM				:   XXX
  14:../../Eblock_lib/Dual_7Segment.c **** 		EEPROM			:   XXX
  15:../../Eblock_lib/Dual_7Segment.c ****  Document				:   Document describe algorithm
  16:../../Eblock_lib/Dual_7Segment.c ****  Written by 			:   Wichai  wichai@geartronics.net
  17:../../Eblock_lib/Dual_7Segment.c ****  Date					:  	23/04/2006
  18:../../Eblock_lib/Dual_7Segment.c ****   
  19:../../Eblock_lib/Dual_7Segment.c ****  Update History
  20:../../Eblock_lib/Dual_7Segment.c ****  
  21:../../Eblock_lib/Dual_7Segment.c ****  Date			By 					Comments
  22:../../Eblock_lib/Dual_7Segment.c ****  ----			--					---------
  23:../../Eblock_lib/Dual_7Segment.c ****  
  24:../../Eblock_lib/Dual_7Segment.c ****  
  25:../../Eblock_lib/Dual_7Segment.c ****   */
  26:../../Eblock_lib/Dual_7Segment.c **** /* Display numeric 0-9  on  digit 0 or 1 
  27:../../Eblock_lib/Dual_7Segment.c ****   
  28:../../Eblock_lib/Dual_7Segment.c **** 	INPUT
  29:../../Eblock_lib/Dual_7Segment.c **** 	num		:	number to show
  30:../../Eblock_lib/Dual_7Segment.c **** 	digit 	: 	Digit  to show
  31:../../Eblock_lib/Dual_7Segment.c **** 	
  32:../../Eblock_lib/Dual_7Segment.c **** 	OUTPUT	:	null
  33:../../Eblock_lib/Dual_7Segment.c **** 	
  34:../../Eblock_lib/Dual_7Segment.c **** */  
  35:../../Eblock_lib/Dual_7Segment.c **** 
  36:../../Eblock_lib/Dual_7Segment.c **** #include "Dual_7Segment.h"
  37:../../Eblock_lib/Dual_7Segment.c **** 
  38:../../Eblock_lib/Dual_7Segment.c **** void d7segment_display( int8_t num, uint8_t digit)
  39:../../Eblock_lib/Dual_7Segment.c **** {
  84               	.LM1:
  85               	/* prologue: frame size=0 */
  86               	/* prologue end (size=0) */
  40:../../Eblock_lib/Dual_7Segment.c ****  switch (num)
  88               	.LM2:
  89 0000 9927      		clr r25
  90 0002 87FD      		sbrc r24,7
  91 0004 9095      		com r25
  92 0006 8630      		cpi r24,6
  93 0008 9105      		cpc r25,__zero_reg__
  94 000a 09F4      		brne .+2
  95 000c 41C0      		rjmp .L14
  97               	.LM3:
  98 000e 8730      		cpi r24,7
  99 0010 9105      		cpc r25,__zero_reg__
 100 0012 8CF4      		brge .L16
 101 0014 8230      		cpi r24,2
 102 0016 9105      		cpc r25,__zero_reg__
 103 0018 59F1      		breq .L5
 104 001a 8330      		cpi r24,3
 105 001c 9105      		cpc r25,__zero_reg__
 106 001e 2CF4      		brge .L17
 107 0020 0097      		sbiw r24,0
 108 0022 11F1      		breq .L3
 109 0024 0197      		sbiw r24,1
 110 0026 11F1      		breq .L4
 111 0028 37C0      		rjmp .L2
 112               	.L17:
 113 002a 8430      		cpi r24,4
 114 002c 9105      		cpc r25,__zero_reg__
 115 002e 21F1      		breq .L7
 116 0030 0597      		sbiw r24,5
 117 0032 24F5      		brge .L8
 118 0034 1FC0      		rjmp .L6
 119               	.L16:
 120 0036 8930      		cpi r24,9
 121 0038 9105      		cpc r25,__zero_reg__
 122 003a 31F1      		breq .L12
 123 003c 8A30      		cpi r24,10
 124 003e 9105      		cpc r25,__zero_reg__
 125 0040 34F4      		brge .L18
 126 0042 8730      		cpi r24,7
 127 0044 9105      		cpc r25,__zero_reg__
 128 0046 E1F0      		breq .L10
 129 0048 0897      		sbiw r24,8
 130 004a E1F0      		breq .L11
 131 004c 25C0      		rjmp .L2
 132               	.L18:
 133 004e 8236      		cpi r24,98
 134 0050 9105      		cpc r25,__zero_reg__
 135 0052 F1F0      		breq .L14
 136 0054 8336      		cpi r24,99
 137 0056 9105      		cpc r25,__zero_reg__
 138 0058 1CF4      		brge .L19
 139 005a 0A97      		sbiw r24,10
 140 005c D9F0      		breq .L15
 141 005e 1CC0      		rjmp .L2
 142               	.L19:
 143 0060 8636      		cpi r24,102
 144 0062 9105      		cpc r25,__zero_reg__
 145 0064 99F0      		breq .L13
 146 0066 18C0      		rjmp .L2
 147               	.L3:
  41:../../Eblock_lib/Dual_7Segment.c ****  {
  42:../../Eblock_lib/Dual_7Segment.c **** 	case 0:
  43:../../Eblock_lib/Dual_7Segment.c **** 		_7SEGMENT_PORT = _7SEGMENT_0;
 149               	.LM4:
 150 0068 8FE3      		ldi r24,lo8(63)
 151 006a 15C0      		rjmp .L22
 152               	.L4:
  44:../../Eblock_lib/Dual_7Segment.c **** 		break;
  45:../../Eblock_lib/Dual_7Segment.c **** 	case 1:
  46:../../Eblock_lib/Dual_7Segment.c **** 		_7SEGMENT_PORT = _7SEGMENT_1;
 154               	.LM5:
 155 006c 86E0      		ldi r24,lo8(6)
 156 006e 13C0      		rjmp .L22
 157               	.L5:
  47:../../Eblock_lib/Dual_7Segment.c **** 		break;
  48:../../Eblock_lib/Dual_7Segment.c **** 	case 2:
  49:../../Eblock_lib/Dual_7Segment.c **** 		_7SEGMENT_PORT = _7SEGMENT_2;
 159               	.LM6:
 160 0070 8BE5      		ldi r24,lo8(91)
 161 0072 11C0      		rjmp .L22
 162               	.L6:
  50:../../Eblock_lib/Dual_7Segment.c **** 		break;
  51:../../Eblock_lib/Dual_7Segment.c **** 	case 3:
  52:../../Eblock_lib/Dual_7Segment.c **** 		_7SEGMENT_PORT = _7SEGMENT_3;
 164               	.LM7:
 165 0074 8FE4      		ldi r24,lo8(79)
 166 0076 0FC0      		rjmp .L22
 167               	.L7:
  53:../../Eblock_lib/Dual_7Segment.c **** 		break;
  54:../../Eblock_lib/Dual_7Segment.c **** 	case 4:
  55:../../Eblock_lib/Dual_7Segment.c **** 		_7SEGMENT_PORT = _7SEGMENT_4;
 169               	.LM8:
 170 0078 86E6      		ldi r24,lo8(102)
 171 007a 0DC0      		rjmp .L22
 172               	.L8:
  56:../../Eblock_lib/Dual_7Segment.c **** 		break;
  57:../../Eblock_lib/Dual_7Segment.c **** 	case 5:
  58:../../Eblock_lib/Dual_7Segment.c **** 		_7SEGMENT_PORT = _7SEGMENT_5;
 174               	.LM9:
 175 007c 8DE6      		ldi r24,lo8(109)
 176 007e 0BC0      		rjmp .L22
 177               	.L10:
  59:../../Eblock_lib/Dual_7Segment.c **** 		break;
  60:../../Eblock_lib/Dual_7Segment.c **** 	case 6:
  61:../../Eblock_lib/Dual_7Segment.c **** 		_7SEGMENT_PORT = _7SEGMENT_6;
  62:../../Eblock_lib/Dual_7Segment.c **** 		break;
  63:../../Eblock_lib/Dual_7Segment.c **** 	case 7:
  64:../../Eblock_lib/Dual_7Segment.c **** 		_7SEGMENT_PORT = _7SEGMENT_7;
 179               	.LM10:
 180 0080 87E0      		ldi r24,lo8(7)
 181 0082 09C0      		rjmp .L22
 182               	.L11:
  65:../../Eblock_lib/Dual_7Segment.c **** 		break;
  66:../../Eblock_lib/Dual_7Segment.c **** 	case 8:
  67:../../Eblock_lib/Dual_7Segment.c **** 		_7SEGMENT_PORT = _7SEGMENT_8;
 184               	.LM11:
 185 0084 8FE7      		ldi r24,lo8(127)
 186 0086 07C0      		rjmp .L22
 187               	.L12:
  68:../../Eblock_lib/Dual_7Segment.c **** 		break;
  69:../../Eblock_lib/Dual_7Segment.c **** 	case 9:
  70:../../Eblock_lib/Dual_7Segment.c **** 		_7SEGMENT_PORT = _7SEGMENT_9;
 189               	.LM12:
 190 0088 87E6      		ldi r24,lo8(103)
 191 008a 05C0      		rjmp .L22
 192               	.L13:
  71:../../Eblock_lib/Dual_7Segment.c **** 	    break;
  72:../../Eblock_lib/Dual_7Segment.c **** 	case 'f':
  73:../../Eblock_lib/Dual_7Segment.c **** 	    _7SEGMENT_PORT = _7SEGMENT_C_F;
 194               	.LM13:
 195 008c 81E7      		ldi r24,lo8(113)
 196 008e 03C0      		rjmp .L22
 197               	.L14:
  74:../../Eblock_lib/Dual_7Segment.c **** 		break;
  75:../../Eblock_lib/Dual_7Segment.c **** 	case 'b':
  76:../../Eblock_lib/Dual_7Segment.c **** 	    _7SEGMENT_PORT = _7SEGMENT_C_B;
 199               	.LM14:
 200 0090 8CE7      		ldi r24,lo8(124)
 201 0092 01C0      		rjmp .L22
 202               	.L15:
  77:../../Eblock_lib/Dual_7Segment.c **** 		break;
  78:../../Eblock_lib/Dual_7Segment.c **** 	case DOT:
  79:../../Eblock_lib/Dual_7Segment.c **** 		_7SEGMENT_PORT = _7SEGMENT_DOT;
 204               	.LM15:
 205 0094 80E8      		ldi r24,lo8(-128)
 206               	.L22:
 207 0096 88BB      		out 56-0x20,r24
 208               	.L2:
  80:../../Eblock_lib/Dual_7Segment.c **** 		break;
  81:../../Eblock_lib/Dual_7Segment.c ****  
  82:../../Eblock_lib/Dual_7Segment.c ****  }
  83:../../Eblock_lib/Dual_7Segment.c **** // Out digit
  84:../../Eblock_lib/Dual_7Segment.c **** 	 
  85:../../Eblock_lib/Dual_7Segment.c ****     if ( digit == 1 )
 210               	.LM16:
 211 0098 6130      		cpi r22,lo8(1)
 212 009a 19F4      		brne .L20
  86:../../Eblock_lib/Dual_7Segment.c **** 	{  // ON Digit 1 OFF  ( 1 Off  0 On)
  87:../../Eblock_lib/Dual_7Segment.c **** 		_7SEGMENT_DIGIT_PORT &= ~(_7SEGMENT_DIGIT1);
 214               	.LM17:
 215 009c AB98      		cbi 53-0x20,3
  88:../../Eblock_lib/Dual_7Segment.c **** 	   // OFF Digit 2 
  89:../../Eblock_lib/Dual_7Segment.c **** 	   _7SEGMENT_DIGIT_PORT |= _7SEGMENT_DIGIT2;
 217               	.LM18:
 218 009e AC9A      		sbi 53-0x20,4
 219 00a0 0895      		ret
 220               	.L20:
  90:../../Eblock_lib/Dual_7Segment.c **** 	}
  91:../../Eblock_lib/Dual_7Segment.c **** 	if ( digit == 2 )
 222               	.LM19:
 223 00a2 6230      		cpi r22,lo8(2)
 224 00a4 11F4      		brne .L1
  92:../../Eblock_lib/Dual_7Segment.c **** 	{  // ON Digit 2 OFF  ( 1 Off  0 On)
  93:../../Eblock_lib/Dual_7Segment.c **** 		_7SEGMENT_DIGIT_PORT &= ~(_7SEGMENT_DIGIT2);
 226               	.LM20:
 227 00a6 AC98      		cbi 53-0x20,4
  94:../../Eblock_lib/Dual_7Segment.c **** 	   // OFF Digit 1
  95:../../Eblock_lib/Dual_7Segment.c **** 	   _7SEGMENT_DIGIT_PORT |= _7SEGMENT_DIGIT1;
 229               	.LM21:
 230 00a8 AB9A      		sbi 53-0x20,3
 231               	.L1:
 232 00aa 0895      		ret
 233               	/* epilogue: frame size=0 */
 234               	/* epilogue: noreturn */
 235               	/* epilogue end (size=0) */
 236               	/* function d7segment_display size 90 (90) */
 238               	.Lscope0:
 240               	.global	d7segment_init
 242               	d7segment_init:
  96:../../Eblock_lib/Dual_7Segment.c **** 	}	
  97:../../Eblock_lib/Dual_7Segment.c **** 
  98:../../Eblock_lib/Dual_7Segment.c **** }	
  99:../../Eblock_lib/Dual_7Segment.c **** 
 100:../../Eblock_lib/Dual_7Segment.c **** 
 101:../../Eblock_lib/Dual_7Segment.c **** /* Initial 7 Segments. Set port to output before use 
 102:../../Eblock_lib/Dual_7Segment.c **** */
 103:../../Eblock_lib/Dual_7Segment.c **** void d7segment_init (void)
 104:../../Eblock_lib/Dual_7Segment.c **** {
 244               	.LM22:
 245               	/* prologue: frame size=0 */
 246               	/* prologue end (size=0) */
 105:../../Eblock_lib/Dual_7Segment.c **** // Set direction for output for 7 Segment
 106:../../Eblock_lib/Dual_7Segment.c **** 	_7SEGMENT_DIGIT_DIR   = 0xFF;
 248               	.LM23:
 249 00ac 8FEF      		ldi r24,lo8(-1)
 250 00ae 87BB      		out 55-0x20,r24
 107:../../Eblock_lib/Dual_7Segment.c **** 	_7SEGMENT_PORT_DIR	  |= _7SEGMENT_DIGIT1 | _7SEGMENT_DIGIT2;
 252               	.LM24:
 253 00b0 84B3      		in r24,52-0x20
 254 00b2 8861      		ori r24,lo8(24)
 255 00b4 84BB      		out 52-0x20,r24
 108:../../Eblock_lib/Dual_7Segment.c ****  
 109:../../Eblock_lib/Dual_7Segment.c **** // Set direction for input for SW 
 110:../../Eblock_lib/Dual_7Segment.c **** 	_7SEGMENT_SW1_DIR	&=  ~(_7SEGMENT_SW1);
 257               	.LM25:
 258 00b6 8B98      		cbi 49-0x20,3
 111:../../Eblock_lib/Dual_7Segment.c **** 	_7SEGMENT_SW2_DIR	&=  ~(_7SEGMENT_SW2);
 260               	.LM26:
 261 00b8 A298      		cbi 52-0x20,2
 112:../../Eblock_lib/Dual_7Segment.c **** 
 113:../../Eblock_lib/Dual_7Segment.c **** // Enable pull up
 114:../../Eblock_lib/Dual_7Segment.c ****     _7SEGMENT_SW1_PORT   |= _7SEGMENT_SW1;
 263               	.LM27:
 264 00ba 939A      		sbi 50-0x20,3
 115:../../Eblock_lib/Dual_7Segment.c ****     _7SEGMENT_SW2_PORT   |= _7SEGMENT_SW2;
 266               	.LM28:
 267 00bc AA9A      		sbi 53-0x20,2
 268               	/* epilogue: frame size=0 */
 269 00be 0895      		ret
 270               	/* epilogue end (size=1) */
 271               	/* function d7segment_init size 10 (9) */
 273               	.Lscope1:
 274               		.text
 276               	Letext:
 277               	/* File "../../Eblock_lib/Dual_7Segment.c": code  100 = 0x0064 (  99), prologues   0, epilogues   1
DEFINED SYMBOLS
                            *ABS*:00000000 Dual_7Segment.c
C:\DOCUME~1\tos\LOCALS~1\Temp/ccK4aaaa.s:3      *ABS*:0000003f __SREG__
C:\DOCUME~1\tos\LOCALS~1\Temp/ccK4aaaa.s:4      *ABS*:0000003e __SP_H__
C:\DOCUME~1\tos\LOCALS~1\Temp/ccK4aaaa.s:5      *ABS*:0000003d __SP_L__
C:\DOCUME~1\tos\LOCALS~1\Temp/ccK4aaaa.s:6      *ABS*:00000000 __tmp_reg__
C:\DOCUME~1\tos\LOCALS~1\Temp/ccK4aaaa.s:7      *ABS*:00000001 __zero_reg__
C:\DOCUME~1\tos\LOCALS~1\Temp/ccK4aaaa.s:82     .text:00000000 d7segment_display
C:\DOCUME~1\tos\LOCALS~1\Temp/ccK4aaaa.s:242    .text:000000ac d7segment_init
C:\DOCUME~1\tos\LOCALS~1\Temp/ccK4aaaa.s:276    .text:000000c0 Letext

UNDEFINED SYMBOLS
__do_copy_data
__do_clear_bss
