AA MACRO ASSEMBLER RSTARTUP                                                                 18/05/08 02:36:15 PAGE     1


MACRO ASSEMBLER AA V2.30a
OBJECT MODULE PLACED IN Startup.OBJ
ASSEMBLER INVOKED BY: C:\Keil\ARM\BIN\AA.exe Startup.s EP

LOC      OBJ             LINE     SOURCE

                          1     
                          2     
                          3     
                          4     
                          5     
                          6     
                          7     
                          8     
                          9     
                         10     
                         11     
                         12     
                         13     
                         14     
                         15     
                         16     
                         17     
                         18     
                         19     
                         20     
                         21     
                         22     
                         23     
                         24     
                         25     
                         26     
                         27     
                         28     
                         29     
                         30     
                         31     
                         32     
                         33     
 0010                    34             Mode_USR  EQU      0x10
 0011                    35             Mode_FIQ  EQU      0x11
 0012                    36             Mode_IRQ  EQU      0x12
 0013                    37             Mode_SVC  EQU      0x13
 0017                    38             Mode_ABT  EQU      0x17
 001B                    39             Mode_UND  EQU      0x1B
 001F                    40             Mode_SYS  EQU      0x1F
                         41     
 0080                    42             I_Bit     EQU      0x80     
 0040                    43             F_Bit     EQU      0x40     
                         44     
                         45     
                         46     
                         47     
                         48     
                         49     
                         50     
                         51     
                         52     
                         53     
                         54     
 0004                    55             UND_Stack_Size  EQU     0x00000004
 0004                    56             SVC_Stack_Size  EQU     0x00000004
 0004                    57             ABT_Stack_Size  EQU     0x00000004
 0004                    58             FIQ_Stack_Size  EQU     0x00000004
AA MACRO ASSEMBLER RSTARTUP                                                                 18/05/08 02:36:15 PAGE     2

 0080                    59             IRQ_Stack_Size  EQU     0x00000080
 0400                    60             USR_Stack_Size  EQU     0x00000400
                         61     
00000000                 62     AREA   STACK, DATA, READWRITE, ALIGN=2
00000000                 63             DS   (USR_Stack_Size+3)&~3  ; Stack for User/System Mode 
00000400                 64             DS   (SVC_Stack_Size+3)&~3  ; Stack for Supervisor Mode
00000404                 65             DS   (IRQ_Stack_Size+3)&~3  ; Stack for Interrupt Mode
00000484                 66             DS   (FIQ_Stack_Size+3)&~3  ; Stack for Fast Interrupt Mode 
00000488                 67             DS   (ABT_Stack_Size+3)&~3  ; Stack for Abort Mode
0000048C                 68             DS   (UND_Stack_Size+3)&~3  ; Stack for Undefined Mode
00000490                 69     Top_Stack:
                         70     
                         71     
                         72     
 E01FC100                73             VPBDIV          EQU     0xE01FC100   
                         74     
                         75     
                         76     
                         77     
                         78     
                         79     
                         80     
                         81     
                         82     
                         83     
                         84     
                         85     
                         86     
                         87     
 0001                    88             VPBDIV_SETUP    EQU     1
 0022                    89             VPBDIV_Val      EQU     0x00000022
                         90     
                         91     
                         92     
 E01FC080                93             PLL_BASE        EQU     0xE01FC080   
 0000                    94             PLLCON_OFS      EQU     0x00         
 0004                    95             PLLCFG_OFS      EQU     0x04         
 0008                    96             PLLSTAT_OFS     EQU     0x08         
 000C                    97             PLLFEED_OFS     EQU     0x0C         
 0001                    98             PLLCON_PLLE     EQU     (1<<0)       
 0002                    99             PLLCON_PLLC     EQU     (1<<1)       
 001F                   100             PLLCFG_MSEL     EQU     (0x1F<<0)    
 0060                   101             PLLCFG_PSEL     EQU     (0x03<<5)    
 0400                   102             PLLSTAT_PLOCK   EQU     (1<<10)      
                        103     
                        104     
                        105     
                        106     
                        107     
                        108     
                        109     
                        110     
                        111     
                        112     
                        113     
                        114     
                        115     
                        116     
                        117     
                        118     
                        119     
 0001                   120             PLL_SETUP       EQU     1
 0022                   121             PLLCFG_Val      EQU     0x00000022
                        122     
                        123     
                        124     
AA MACRO ASSEMBLER RSTARTUP                                                                 18/05/08 02:36:15 PAGE     3

 E01FC000               125             MAM_BASE        EQU     0xE01FC000   
 0000                   126             MAMCR_OFS       EQU     0x00         
 0004                   127             MAMTIM_OFS      EQU     0x04         
                        128     
                        129     
                        130     
                        131     
                        132     
                        133     
                        134     
                        135     
                        136     
                        137     
                        138     
                        139     
                        140     
                        141     
                        142     
 0001                   143             MAM_SETUP       EQU     1
 0002                   144             MAMCR_Val       EQU     0x00000002
 0003                   145             MAMTIM_Val      EQU     0x00000003
                        146     
                        147     
                        148     
                        149     $if             (RAM_MODE)
                                        CODE_BASE       EQU     0x40000000
                                $else 
 0000                   152             CODE_BASE       EQU     0x00000000
                        153     $endif 
                        154     
00000000                155     AREA    STARTUPCODE, CODE, AT CODE_BASE    
                        156             PUBLIC  __startup
                        157     
                        158             EXTERN  CODE32 (?C?INIT)
                        159     
                        160     __startup       PROC    CODE32
                        161     
                        162     
                        163     
                        164     EXTERN  CODE32 (Undef_Handler?A)
                        165     EXTERN  CODE32 (SWI_Handler?A)
                        166     EXTERN  CODE32 (PAbt_Handler?A)
                        167     EXTERN  CODE32 (DAbt_Handler?A)
                        168     EXTERN  CODE32 (IRQ_Handler?A)
                        169     EXTERN  CODE32 (FIQ_Handler?A)
                        170     
                        171     
                        172     
                        173     
                        174     
00000000 E59FF020       175     Vectors:        LDR     PC,Reset_Addr         
00000004 E59FF024       176                     LDR     PC,Undef_Addr
00000008 E59FF028       177                     LDR     PC,SWI_Addr
0000000C E59FF02C       178                     LDR     PC,PAbt_Addr
00000010 E59FF030       179                     LDR     PC,DAbt_Addr
00000014 E1A00000       180                     NOP                             
                        181     ;               LDR     PC,IRQ_Addr
00000018 E51FFFF0       182                     LDR     PC,[PC, #-0x0FF0]       
0000001C E59FF03C       183                     LDR     PC,FIQ_Addr
                        184     
00000020 00000040 R     185     Reset_Addr:     DD      Reset_Handler
00000024 00000000 E     186     Undef_Addr:     DD      Undef_Handler?A
00000028 00000000 E     187     SWI_Addr:       DD      SWI_Handler?A
0000002C 00000000 E     188     PAbt_Addr:      DD      PAbt_Handler?A
00000030 00000000 E     189     DAbt_Addr:      DD      DAbt_Handler?A
00000034 00000000       190                     DD      0                       
AA MACRO ASSEMBLER RSTARTUP                                                                 18/05/08 02:36:15 PAGE     4

00000038 00000000 E     191     IRQ_Addr:       DD      IRQ_Handler?A
0000003C 00000000 E     192     FIQ_Addr:       DD      FIQ_Handler?A
                        193     
                        194     
                        195     
                        196     
00000040                197     Reset_Handler:  
                        198     
                        199     IF (VPBDIV_SETUP != 0)
00000040 E59F0034       200                     LDR     R0, =VPBDIV
00000044 E3A01022       201                     LDR     R1, =VPBDIV_Val
00000048 E5801000       202                     STR     R1, [R0]
                        203     ENDIF
                        204     
                        205     IF (PLL_SETUP != 0)
0000004C E59F0034       206                     LDR     R0, =PLL_BASE
00000050 E3A010AA       207                     MOV     R1, #0xAA
00000054 E3A02055       208                     MOV     R2, #0x55
                        209     
                        210     
00000058 E3A03022       211                     MOV     R3, #PLLCFG_Val
0000005C E5803004       212                     STR     R3, [R0, #PLLCFG_OFS] 
00000060 E3A03001       213                     MOV     R3, #PLLCON_PLLE
00000064 E5803000       214                     STR     R3, [R0, #PLLCON_OFS]
00000068 E580100C       215                     STR     R1, [R0, #PLLFEED_OFS]
0000006C E580200C       216                     STR     R2, [R0, #PLLFEED_OFS]
                        217     
                        218     
00000070 E5903008       219     PLL_Loop:       LDR     R3, [R0, #PLLSTAT_OFS]
00000074 E2133B01       220                     ANDS    R3, R3, #PLLSTAT_PLOCK
00000078 0AFFFFFC       221                     BEQ     PLL_Loop
                        222     
                        223     
0000007C E3A03003       224                     MOV     R3, #(PLLCON_PLLE | PLLCON_PLLC)
00000080 E5803000       225                     STR     R3, [R0, #PLLCON_OFS]
00000084 E580100C       226                     STR     R1, [R0, #PLLFEED_OFS]
00000088 E580200C       227                     STR     R2, [R0, #PLLFEED_OFS]
                        228     ENDIF
                        229     
                        230     
                        231     IF (MAM_SETUP != 0)
0000008C E59F0034       232                     LDR     R0, =MAM_BASE
00000090 E3A01003       233                     MOV     R1, #MAMTIM_Val
00000094 E5801004       234                     STR     R1, [R0, #MAMTIM_OFS] 
00000098 E3A01002       235                     MOV     R1, #MAMCR_Val
0000009C E5801000       236                     STR     R1, [R0, #MAMCR_OFS] 
                        237     ENDIF
                        238     
                        239     
                        240     
 E01FC040               241                     MEMMAP  EQU  0xE01FC040   
                        242     
                        243     $if  (REMAP)
                                                LDR     R0, =MEMMAP
                                $if  (RAM_MODE)                
                                                MOV     R1, #2
                                $else 
                                                MOV     R1, #1
                                $endif                 
                                                STR     R1, [R0]
                                $endif 
                        252     
                        253     
                        254     
000000A0 E59F0034       255                     LDR     R0, =Top_Stack
                        256     
AA MACRO ASSEMBLER RSTARTUP                                                                 18/05/08 02:36:15 PAGE     5

                        257     
000000A4 E321F0DB       258                     MSR     CPSR_c, #Mode_UND|I_Bit|F_Bit
000000A8 E1A0D000       259                     MOV     SP, R0
000000AC E2400004       260                     SUB     R0, R0, #UND_Stack_Size
                        261     
                        262     
000000B0 E321F0D7       263                     MSR     CPSR_c, #Mode_ABT|I_Bit|F_Bit
000000B4 E1A0D000       264                     MOV     SP, R0
000000B8 E2400004       265                     SUB     R0, R0, #ABT_Stack_Size
                        266     
                        267     
000000BC E321F0D1       268                     MSR     CPSR_c, #Mode_FIQ|I_Bit|F_Bit
000000C0 E1A0D000       269                     MOV     SP, R0
000000C4 E2400004       270                     SUB     R0, R0, #FIQ_Stack_Size
                        271     
                        272     
000000C8 E321F0D2       273                     MSR     CPSR_c, #Mode_IRQ|I_Bit|F_Bit
000000CC E1A0D000       274                     MOV     SP, R0
000000D0 E2400080       275                     SUB     R0, R0, #IRQ_Stack_Size
                        276     
                        277     
000000D4 E321F0D3       278                     MSR     CPSR_c, #Mode_SVC|I_Bit|F_Bit
000000D8 E1A0D000       279                     MOV     SP, R0
000000DC E2400004       280                     SUB     R0, R0, #SVC_Stack_Size
                        281     
                        282     
000000E0 E321F010       283                     MSR     CPSR_c, #Mode_USR
000000E4 E1A0D000       284                     MOV     SP, R0
                        285     
                        286     
000000E8 E59F0034       287                     LDR     R0,=?C?INIT
000000EC E3100001       288                     TST     R0,#1       ; Bit-0 set: INIT is Thumb
000000F0 E3A0E0FC       289                     LDREQ   LR,=exit?A  ; ARM Mode
000000F4 E3A0EC01       290                     LDRNE   LR,=exit?T  ; Thumb Mode
000000F8 E12FFF10       291                     BX      R0
                        292                     ENDP
                        293     
                        294     PUBLIC exit?A
                        295     exit?A          PROC    CODE32
000000FC EAFFFFFE       296                     B       exit?A
                        297                     ENDP
                        298     
                        299     PUBLIC exit?T
                        300     exit?T          PROC    CODE16
00000100 E7FE           301     exit:           B       exit?T
                        302                     ENDP
                        303     
                        304                     END
AA MACRO ASSEMBLER RSTARTUP                                                                 18/05/08 02:36:15 PAGE     6

SYMBOL TABLE LISTING
------ ----- -------


N A M E             T Y P E  V A L U E     ATTRIBUTES

?C?INIT. . . . . .  C  ADDR  -------       EXT
ABT_Stack_Size . .  -- ----  0004H     A   
CODE_BASE. . . . .  -- ----  0000H     A   
DAbt_Addr. . . . .  C  ADDR  0030H     R   SEG=STARTUPCODE
DAbt_Handler?A . .  C  ADDR  -------       EXT
FIQ_Addr . . . . .  C  ADDR  003CH     R   SEG=STARTUPCODE
FIQ_Handler?A. . .  C  ADDR  -------       EXT
FIQ_Stack_Size . .  -- ----  0004H     A   
F_Bit. . . . . . .  -- ----  0040H     A   
IRQ_Addr . . . . .  C  ADDR  0038H     R   SEG=STARTUPCODE
IRQ_Handler?A. . .  C  ADDR  -------       EXT
IRQ_Stack_Size . .  -- ----  0080H     A   
I_Bit. . . . . . .  -- ----  0080H     A   
MAMCR_OFS. . . . .  -- ----  0000H     A   
MAMCR_Val. . . . .  -- ----  0002H     A   
MAMTIM_OFS . . . .  -- ----  0004H     A   
MAMTIM_Val . . . .  -- ----  0003H     A   
MAM_BASE . . . . .  -- ----  E01FC000H A   
MAM_SETUP. . . . .  -- ----  0001H     A   
MEMMAP . . . . . .  -- ----  E01FC040H A   
Mode_ABT . . . . .  -- ----  0017H     A   
Mode_FIQ . . . . .  -- ----  0011H     A   
Mode_IRQ . . . . .  -- ----  0012H     A   
Mode_SVC . . . . .  -- ----  0013H     A   
Mode_SYS . . . . .  -- ----  001FH     A   
Mode_UND . . . . .  -- ----  001BH     A   
Mode_USR . . . . .  -- ----  0010H     A   
PAbt_Addr. . . . .  C  ADDR  002CH     R   SEG=STARTUPCODE
PAbt_Handler?A . .  C  ADDR  -------       EXT
PLLCFG_MSEL. . . .  -- ----  001FH     A   
PLLCFG_OFS . . . .  -- ----  0004H     A   
PLLCFG_PSEL. . . .  -- ----  0060H     A   
PLLCFG_Val . . . .  -- ----  0022H     A   
PLLCON_OFS . . . .  -- ----  0000H     A   
PLLCON_PLLC. . . .  -- ----  0002H     A   
PLLCON_PLLE. . . .  -- ----  0001H     A   
PLLFEED_OFS. . . .  -- ----  000CH     A   
PLLSTAT_OFS. . . .  -- ----  0008H     A   
PLLSTAT_PLOCK. . .  -- ----  0400H     A   
PLL_BASE . . . . .  -- ----  E01FC080H A   
PLL_Loop . . . . .  C  ADDR  0070H     R   SEG=STARTUPCODE
PLL_SETUP. . . . .  -- ----  0001H     A   
Reset_Addr . . . .  C  ADDR  0020H     R   SEG=STARTUPCODE
Reset_Handler. . .  C  ADDR  0040H     R   SEG=STARTUPCODE
STACK. . . . . . .  D  SEG   0490H         REL=UNIT, ALN=BYTE
STARTUPCODE. . . .  C  SEG   0102H         REL=ABS, ALN=BYTE
SVC_Stack_Size . .  -- ----  0004H     A   
SWI_Addr . . . . .  C  ADDR  0028H     R   SEG=STARTUPCODE
SWI_Handler?A. . .  C  ADDR  -------       EXT
Top_Stack. . . . .  D  ADDR  0490H     R   SEG=STACK
UND_Stack_Size . .  -- ----  0004H     A   
USR_Stack_Size . .  -- ----  0400H     A   
Undef_Addr . . . .  C  ADDR  0024H     R   SEG=STARTUPCODE
Undef_Handler?A. .  C  ADDR  -------       EXT
VPBDIV . . . . . .  -- ----  E01FC100H A   
VPBDIV_SETUP . . .  -- ----  0001H     A   
VPBDIV_Val . . . .  -- ----  0022H     A   
Vectors. . . . . .  C  ADDR  0000H     R   SEG=STARTUPCODE
__startup. . . . .  C  ADDR  0000H     R   SEG=STARTUPCODE
exit . . . . . . .  C  ADDR  0100H     R   SEG=STARTUPCODE
AA MACRO ASSEMBLER RSTARTUP                                                                 18/05/08 02:36:15 PAGE     7

exit?A . . . . . .  C  ADDR  00FCH     R   SEG=STARTUPCODE
exit?T . . . . . .  C  ADDR  0100H     R   SEG=STARTUPCODE


ASSEMBLY COMPLETE.  0 WARNING(S), 0 ERROR(S).
